; Function Attrs: mustprogress uwtable
define void @_ZN19QualityMapperDialog32on_brightessSpinBox_valueChangedEd(ptr nocapture noundef nonnull readonly align 8 dereferenceable(824) %0, double noundef %1) local_unnamed_addr #9 align 2 {
  %3 = getelementptr inbounds i8, ptr %0, i64 536
  %4 = load ptr, ptr %3, align 8
  %5 = tail call noundef zeroext i1 @_ZN7QObject12blockSignalsEb(ptr noundef nonnull align 8 dereferenceable(16) %4, i1 noundef zeroext true) #23
  %6 = load ptr, ptr %3, align 8
  %7 = fmul double %1, 5.000000e+01
  %8 = fptosi double %7 to i32
  tail call void @_ZN15QAbstractSlider8setValueEi(ptr noundef nonnull align 8 dereferenceable(48) %6, i32 noundef %8)
  %9 = load ptr, ptr %3, align 8
  %10 = tail call noundef zeroext i1 @_ZN7QObject12blockSignalsEb(ptr noundef nonnull align 8 dereferenceable(16) %9, i1 noundef zeroext false) #23
  ret void
}